target datalayout = "e-m:e-p270:32:32-p271:32:32-p272:64:64-i64:64-i128:128-f80:128-n8:16:32:64-S128"
target triple = "x86_64-pc-linux-gnu"

%struct.wpacket_st = type { ptr, ptr, i64, i64, i64, ptr, i8 }
%struct.wpacket_sub = type { ptr, i64, i64, i64, i32 }

; Function Attrs: nounwind uwtable
define dso_local i32 @WPACKET_fill_lengths(ptr noundef %0) #0 {
  %2 = alloca i32, align 4
  %3 = alloca ptr, align 8
  %4 = alloca ptr, align 8
  %5 = alloca i32, align 4
  store ptr %0, ptr %3, align 8, !tbaa !4
  call void @llvm.lifetime.start.p0(i64 8, ptr %4) #7
  %6 = load ptr, ptr %3, align 8, !tbaa !4
  %7 = getelementptr inbounds nuw %struct.wpacket_st, ptr %6, i32 0, i32 5
  %8 = load ptr, ptr %7, align 8, !tbaa !20
  %9 = icmp ne ptr %8, null
  %10 = zext i1 %9 to i32
  %11 = icmp ne i32 %10, 0
  %12 = xor i1 %11, true
  %13 = xor i1 %12, true
  %14 = zext i1 %13 to i32
  %15 = sext i32 %14 to i64
  %16 = call i64 @llvm.expect.i64(i64 %15, i64 1)
  %17 = icmp ne i64 %16, 0
  br i1 %17, label %19, label %18

18:                                               ; preds = %1
  store i32 0, ptr %2, align 4
  store i32 1, ptr %5, align 4
  br label %38

19:                                               ; preds = %1
  %20 = load ptr, ptr %3, align 8, !tbaa !4
  %21 = getelementptr inbounds nuw %struct.wpacket_st, ptr %20, i32 0, i32 5
  %22 = load ptr, ptr %21, align 8, !tbaa !20
  store ptr %22, ptr %4, align 8, !tbaa !26
  br label %23

23:                                               ; preds = %33, %19
  %24 = load ptr, ptr %4, align 8, !tbaa !26
  %25 = icmp ne ptr %24, null
  br i1 %25, label %26, label %37

26:                                               ; preds = %23
  %27 = load ptr, ptr %3, align 8, !tbaa !4
  %28 = load ptr, ptr %4, align 8, !tbaa !26
  %29 = call i32 @wpacket_intern_close(ptr noundef %27, ptr noundef %28, i32 noundef 0)
  %30 = icmp ne i32 %29, 0
  br i1 %30, label %32, label %31

31:                                               ; preds = %26
  store i32 0, ptr %2, align 4
  store i32 1, ptr %5, align 4
  br label %38

32:                                               ; preds = %26
  br label %33

33:                                               ; preds = %32
  %34 = load ptr, ptr %4, align 8, !tbaa !26
  %35 = getelementptr inbounds nuw %struct.wpacket_sub, ptr %34, i32 0, i32 0
  %36 = load ptr, ptr %35, align 8, !tbaa !27
  store ptr %36, ptr %4, align 8, !tbaa !26
  br label %23, !llvm.loop !37

37:                                               ; preds = %23
  store i32 1, ptr %2, align 4
  store i32 1, ptr %5, align 4
  br label %38

38:                                               ; preds = %37, %31, %18
  call void @llvm.lifetime.end.p0(i64 8, ptr %4) #7
  %39 = load i32, ptr %2, align 4
  ret i32 %39
}