; Function Attrs: nounwind uwtable
define dso_local range(i32 0, 2) i32 @WPACKET_fill_lengths(ptr noundef captures(none) %0) local_unnamed_addr #0 {
  %2 = getelementptr inbounds nuw i8, ptr %0, i64 40
  %3 = load ptr, ptr %2, align 8, !tbaa !4
  %.not = icmp eq ptr %3, null
  br i1 %.not, label %.loopexit, label %.preheader, !prof !24

.preheader:                                       ; preds = %1, %5
  %.010 = phi ptr [ %6, %5 ], [ %3, %1 ]
  %4 = tail call fastcc i32 @wpacket_intern_close(ptr noundef %0, ptr noundef %.010, i32 noundef 0)
  %.not9 = icmp eq i32 %4, 0
  br i1 %.not9, label %.loopexit, label %5

5:                                                ; preds = %.preheader
  %6 = load ptr, ptr %.010, align 8, !tbaa !25
  %.not8 = icmp eq ptr %6, null
  br i1 %.not8, label %.loopexit, label %.preheader, !llvm.loop !31

.loopexit:                                        ; preds = %5, %.preheader, %1
  %.06 = phi i32 [ 0, %1 ], [ 1, %5 ], [ 0, %.preheader ]
  ret i32 %.06
}